target datalayout = "e-m:e-p270:32:32-p271:32:32-p272:64:64-i64:64-i128:128-f80:128-n8:16:32:64-S128"
target triple = "x86_64-pc-linux-gnu"

; Function Attrs: nounwind uwtable
define dso_local i32 @read_lines(ptr noundef %0, ptr noundef %1) #0 {
  %3 = alloca i32, align 4
  %4 = alloca ptr, align 8
  %5 = alloca ptr, align 8
  %6 = alloca i32, align 4
  %7 = alloca i32, align 4
  %8 = alloca i32, align 4
  store ptr %0, ptr %4, align 8, !tbaa !9
  store ptr %1, ptr %5, align 8, !tbaa !53
  call void @llvm.lifetime.start.p0(i64 4, ptr %6) #10
  %9 = load ptr, ptr %4, align 8, !tbaa !9
  %10 = call i32 (ptr, i32, ...) @open64(ptr noundef %9, i32 noundef 0)
  store i32 %10, ptr %6, align 4, !tbaa !15
  call void @llvm.lifetime.start.p0(i64 4, ptr %7) #10
  store i32 0, ptr %7, align 4, !tbaa !15
  %11 = load i32, ptr %6, align 4, !tbaa !15
  %12 = icmp slt i32 %11, 0
  br i1 %12, label %13, label %26

13:                                               ; preds = %2
  %14 = call ptr @__errno_location() #11
  %15 = load i32, ptr %14, align 4, !tbaa !15
  %16 = icmp eq i32 %15, 2
  br i1 %16, label %17, label %25

17:                                               ; preds = %13
  %18 = call ptr @reftable_calloc(i64 noundef 1, i64 noundef 8)
  %19 = load ptr, ptr %5, align 8, !tbaa !53
  store ptr %18, ptr %19, align 8, !tbaa !35
  %20 = load ptr, ptr %5, align 8, !tbaa !53
  %21 = load ptr, ptr %20, align 8, !tbaa !35
  %22 = icmp ne ptr %21, null
  br i1 %22, label %24, label %23

23:                                               ; preds = %17
  store i32 -13, ptr %3, align 4
  store i32 1, ptr %8, align 4
  br label %33

24:                                               ; preds = %17
  store i32 0, ptr %3, align 4
  store i32 1, ptr %8, align 4
  br label %33

25:                                               ; preds = %13
  store i32 -2, ptr %3, align 4
  store i32 1, ptr %8, align 4
  br label %33

26:                                               ; preds = %2
  %27 = load i32, ptr %6, align 4, !tbaa !15
  %28 = load ptr, ptr %5, align 8, !tbaa !53
  %29 = call i32 @fd_read_lines(i32 noundef %27, ptr noundef %28)
  store i32 %29, ptr %7, align 4, !tbaa !15
  %30 = load i32, ptr %6, align 4, !tbaa !15
  %31 = call i32 @close(i32 noundef %30)
  %32 = load i32, ptr %7, align 4, !tbaa !15
  store i32 %32, ptr %3, align 4
  store i32 1, ptr %8, align 4
  br label %33

33:                                               ; preds = %26, %25, %24, %23
  call void @llvm.lifetime.end.p0(i64 4, ptr %7) #10
  call void @llvm.lifetime.end.p0(i64 4, ptr %6) #10
  %34 = load i32, ptr %3, align 4
  ret i32 %34
}