; Function Attrs: nounwind uwtable
define dso_local range(i32 -13, -2147483648) i32 @read_lines(ptr noundef readonly captures(none) %0, ptr noundef writeonly captures(none) %1) local_unnamed_addr #0 {
  %3 = tail call i32 (ptr, i32, ...) @open64(ptr noundef %0, i32 noundef 0) #16
  %4 = icmp slt i32 %3, 0
  br i1 %4, label %5, label %11

5:                                                ; preds = %2
  %6 = tail call ptr @__errno_location() #17
  %7 = load i32, ptr %6, align 4, !tbaa !8
  %8 = icmp eq i32 %7, 2
  br i1 %8, label %9, label %14

9:                                                ; preds = %5
  %10 = tail call ptr @reftable_calloc(i64 noundef 1, i64 noundef 8) #16
  store ptr %10, ptr %1, align 8, !tbaa !30
  %.not = icmp eq ptr %10, null
  %. = select i1 %.not, i32 -13, i32 0
  br label %14

11:                                               ; preds = %2
  %12 = tail call fastcc i32 @fd_read_lines(i32 noundef %3, ptr noundef %1)
  %13 = tail call i32 @close(i32 noundef %3) #16
  br label %14

14:                                               ; preds = %5, %9, %11
  %.0 = phi i32 [ %12, %11 ], [ %., %9 ], [ -2, %5 ]
  ret i32 %.0
}